target datalayout = "e-m:e-p270:32:32-p271:32:32-p272:64:64-i64:64-i128:128-f80:128-n8:16:32:64-S128"
target triple = "x86_64-pc-linux-gnu"

; Function Attrs: inlinehint nounwind uwtable
define internal i32 @Kit_WordCountOnes(i32 noundef %0) #2 {
  %2 = alloca i32, align 4
  store i32 %0, ptr %2, align 4, !tbaa !8
  %3 = load i32, ptr %2, align 4, !tbaa !8
  %4 = and i32 %3, 1431655765
  %5 = load i32, ptr %2, align 4, !tbaa !8
  %6 = lshr i32 %5, 1
  %7 = and i32 %6, 1431655765
  %8 = add i32 %4, %7
  store i32 %8, ptr %2, align 4, !tbaa !8
  %9 = load i32, ptr %2, align 4, !tbaa !8
  %10 = and i32 %9, 858993459
  %11 = load i32, ptr %2, align 4, !tbaa !8
  %12 = lshr i32 %11, 2
  %13 = and i32 %12, 858993459
  %14 = add i32 %10, %13
  store i32 %14, ptr %2, align 4, !tbaa !8
  %15 = load i32, ptr %2, align 4, !tbaa !8
  %16 = and i32 %15, 252645135
  %17 = load i32, ptr %2, align 4, !tbaa !8
  %18 = lshr i32 %17, 4
  %19 = and i32 %18, 252645135
  %20 = add i32 %16, %19
  store i32 %20, ptr %2, align 4, !tbaa !8
  %21 = load i32, ptr %2, align 4, !tbaa !8
  %22 = and i32 %21, 16711935
  %23 = load i32, ptr %2, align 4, !tbaa !8
  %24 = lshr i32 %23, 8
  %25 = and i32 %24, 16711935
  %26 = add i32 %22, %25
  store i32 %26, ptr %2, align 4, !tbaa !8
  %27 = load i32, ptr %2, align 4, !tbaa !8
  %28 = and i32 %27, 65535
  %29 = load i32, ptr %2, align 4, !tbaa !8
  %30 = lshr i32 %29, 16
  %31 = add i32 %28, %30
  ret i32 %31
}

; Function Attrs: inlinehint nounwind uwtable
define internal i32 @Kit_TruthWordNum(i32 noundef %0) #2 {
  %2 = alloca i32, align 4
  store i32 %0, ptr %2, align 4, !tbaa !8
  %3 = load i32, ptr %2, align 4, !tbaa !8
  %4 = icmp sle i32 %3, 5
  br i1 %4, label %5, label %6

5:                                                ; preds = %1
  br label %10

6:                                                ; preds = %1
  %7 = load i32, ptr %2, align 4, !tbaa !8
  %8 = sub nsw i32 %7, 5
  %9 = shl i32 1, %8
  br label %10

10:                                               ; preds = %6, %5
  %11 = phi i32 [ 1, %5 ], [ %9, %6 ]
  ret i32 %11
}

; Function Attrs: nounwind uwtable
define i32 @Kit_TruthBooleanDiffCount(ptr noundef %0, i32 noundef %1, i32 noundef %2) #0 {
  %4 = alloca i32, align 4
  %5 = alloca ptr, align 8
  %6 = alloca i32, align 4
  %7 = alloca i32, align 4
  %8 = alloca i32, align 4
  %9 = alloca i32, align 4
  %10 = alloca i32, align 4
  %11 = alloca i32, align 4
  %12 = alloca i32, align 4
  %13 = alloca i32, align 4
  store ptr %0, ptr %5, align 8, !tbaa !3
  store i32 %1, ptr %6, align 4, !tbaa !8
  store i32 %2, ptr %7, align 4, !tbaa !8
  call void @llvm.lifetime.start.p0(i64 4, ptr %8) #8
  %14 = load i32, ptr %6, align 4, !tbaa !8
  %15 = call i32 @Kit_TruthWordNum(i32 noundef %14)
  store i32 %15, ptr %8, align 4, !tbaa !8
  call void @llvm.lifetime.start.p0(i64 4, ptr %9) #8
  call void @llvm.lifetime.start.p0(i64 4, ptr %10) #8
  call void @llvm.lifetime.start.p0(i64 4, ptr %11) #8
  call void @llvm.lifetime.start.p0(i64 4, ptr %12) #8
  store i32 0, ptr %12, align 4, !tbaa !8
  %16 = load i32, ptr %7, align 4, !tbaa !8
  switch i32 %16, label %152 [
    i32 0, label %17
    i32 1, label %44
    i32 2, label %71
    i32 3, label %98
    i32 4, label %125
  ]

17:                                               ; preds = %3
  store i32 0, ptr %9, align 4, !tbaa !8
  br label %18

18:                                               ; preds = %39, %17
  %19 = load i32, ptr %9, align 4, !tbaa !8
  %20 = load i32, ptr %8, align 4, !tbaa !8
  %21 = icmp slt i32 %19, %20
  br i1 %21, label %22, label %42

22:                                               ; preds = %18
  %23 = load ptr, ptr %5, align 8, !tbaa !3
  %24 = load i32, ptr %9, align 4, !tbaa !8
  %25 = sext i32 %24 to i64
  %26 = getelementptr inbounds i32, ptr %23, i64 %25
  %27 = load i32, ptr %26, align 4, !tbaa !8
  %28 = load ptr, ptr %5, align 8, !tbaa !3
  %29 = load i32, ptr %9, align 4, !tbaa !8
  %30 = sext i32 %29 to i64
  %31 = getelementptr inbounds i32, ptr %28, i64 %30
  %32 = load i32, ptr %31, align 4, !tbaa !8
  %33 = lshr i32 %32, 1
  %34 = xor i32 %27, %33
  %35 = and i32 %34, 1431655765
  %36 = call i32 @Kit_WordCountOnes(i32 noundef %35)
  %37 = load i32, ptr %12, align 4, !tbaa !8
  %38 = add nsw i32 %37, %36
  store i32 %38, ptr %12, align 4, !tbaa !8
  br label %39

39:                                               ; preds = %22
  %40 = load i32, ptr %9, align 4, !tbaa !8
  %41 = add nsw i32 %40, 1
  store i32 %41, ptr %9, align 4, !tbaa !8
  br label %18, !llvm.loop !125

42:                                               ; preds = %18
  %43 = load i32, ptr %12, align 4, !tbaa !8
  store i32 %43, ptr %4, align 4
  store i32 1, ptr %13, align 4
  br label %198

44:                                               ; preds = %3
  store i32 0, ptr %9, align 4, !tbaa !8
  br label %45

45:                                               ; preds = %66, %44
  %46 = load i32, ptr %9, align 4, !tbaa !8
  %47 = load i32, ptr %8, align 4, !tbaa !8
  %48 = icmp slt i32 %46, %47
  br i1 %48, label %49, label %69

49:                                               ; preds = %45
  %50 = load ptr, ptr %5, align 8, !tbaa !3
  %51 = load i32, ptr %9, align 4, !tbaa !8
  %52 = sext i32 %51 to i64
  %53 = getelementptr inbounds i32, ptr %50, i64 %52
  %54 = load i32, ptr %53, align 4, !tbaa !8
  %55 = load ptr, ptr %5, align 8, !tbaa !3
  %56 = load i32, ptr %9, align 4, !tbaa !8
  %57 = sext i32 %56 to i64
  %58 = getelementptr inbounds i32, ptr %55, i64 %57
  %59 = load i32, ptr %58, align 4, !tbaa !8
  %60 = lshr i32 %59, 2
  %61 = xor i32 %54, %60
  %62 = and i32 %61, 858993459
  %63 = call i32 @Kit_WordCountOnes(i32 noundef %62)
  %64 = load i32, ptr %12, align 4, !tbaa !8
  %65 = add nsw i32 %64, %63
  store i32 %65, ptr %12, align 4, !tbaa !8
  br label %66

66:                                               ; preds = %49
  %67 = load i32, ptr %9, align 4, !tbaa !8
  %68 = add nsw i32 %67, 1
  store i32 %68, ptr %9, align 4, !tbaa !8
  br label %45, !llvm.loop !126

69:                                               ; preds = %45
  %70 = load i32, ptr %12, align 4, !tbaa !8
  store i32 %70, ptr %4, align 4
  store i32 1, ptr %13, align 4
  br label %198

71:                                               ; preds = %3
  store i32 0, ptr %9, align 4, !tbaa !8
  br label %72

72:                                               ; preds = %93, %71
  %73 = load i32, ptr %9, align 4, !tbaa !8
  %74 = load i32, ptr %8, align 4, !tbaa !8
  %75 = icmp slt i32 %73, %74
  br i1 %75, label %76, label %96

76:                                               ; preds = %72
  %77 = load ptr, ptr %5, align 8, !tbaa !3
  %78 = load i32, ptr %9, align 4, !tbaa !8
  %79 = sext i32 %78 to i64
  %80 = getelementptr inbounds i32, ptr %77, i64 %79
  %81 = load i32, ptr %80, align 4, !tbaa !8
  %82 = load ptr, ptr %5, align 8, !tbaa !3
  %83 = load i32, ptr %9, align 4, !tbaa !8
  %84 = sext i32 %83 to i64
  %85 = getelementptr inbounds i32, ptr %82, i64 %84
  %86 = load i32, ptr %85, align 4, !tbaa !8
  %87 = lshr i32 %86, 4
  %88 = xor i32 %81, %87
  %89 = and i32 %88, 252645135
  %90 = call i32 @Kit_WordCountOnes(i32 noundef %89)
  %91 = load i32, ptr %12, align 4, !tbaa !8
  %92 = add nsw i32 %91, %90
  store i32 %92, ptr %12, align 4, !tbaa !8
  br label %93

93:                                               ; preds = %76
  %94 = load i32, ptr %9, align 4, !tbaa !8
  %95 = add nsw i32 %94, 1
  store i32 %95, ptr %9, align 4, !tbaa !8
  br label %72, !llvm.loop !127

96:                                               ; preds = %72
  %97 = load i32, ptr %12, align 4, !tbaa !8
  store i32 %97, ptr %4, align 4
  store i32 1, ptr %13, align 4
  br label %198

98:                                               ; preds = %3
  store i32 0, ptr %9, align 4, !tbaa !8
  br label %99

99:                                               ; preds = %120, %98
  %100 = load i32, ptr %9, align 4, !tbaa !8
  %101 = load i32, ptr %8, align 4, !tbaa !8
  %102 = icmp slt i32 %100, %101
  br i1 %102, label %103, label %123

103:                                              ; preds = %99
  %104 = load ptr, ptr %5, align 8, !tbaa !3
  %105 = load i32, ptr %9, align 4, !tbaa !8
  %106 = sext i32 %105 to i64
  %107 = getelementptr inbounds i32, ptr %104, i64 %106
  %108 = load i32, ptr %107, align 4, !tbaa !8
  %109 = load ptr, ptr %5, align 8, !tbaa !3
  %110 = load i32, ptr %9, align 4, !tbaa !8
  %111 = sext i32 %110 to i64
  %112 = getelementptr inbounds i32, ptr %109, i64 %111
  %113 = load i32, ptr %112, align 4, !tbaa !8
  %114 = lshr i32 %113, 8
  %115 = xor i32 %108, %114
  %116 = and i32 %115, 16711935
  %117 = call i32 @Kit_WordCountOnes(i32 noundef %116)
  %118 = load i32, ptr %12, align 4, !tbaa !8
  %119 = add nsw i32 %118, %117
  store i32 %119, ptr %12, align 4, !tbaa !8
  br label %120

120:                                              ; preds = %103
  %121 = load i32, ptr %9, align 4, !tbaa !8
  %122 = add nsw i32 %121, 1
  store i32 %122, ptr %9, align 4, !tbaa !8
  br label %99, !llvm.loop !128

123:                                              ; preds = %99
  %124 = load i32, ptr %12, align 4, !tbaa !8
  store i32 %124, ptr %4, align 4
  store i32 1, ptr %13, align 4
  br label %198

125:                                              ; preds = %3
  store i32 0, ptr %9, align 4, !tbaa !8
  br label %126

126:                                              ; preds = %147, %125
  %127 = load i32, ptr %9, align 4, !tbaa !8
  %128 = load i32, ptr %8, align 4, !tbaa !8
  %129 = icmp slt i32 %127, %128
  br i1 %129, label %130, label %150

130:                                              ; preds = %126
  %131 = load ptr, ptr %5, align 8, !tbaa !3
  %132 = load i32, ptr %9, align 4, !tbaa !8
  %133 = sext i32 %132 to i64
  %134 = getelementptr inbounds i32, ptr %131, i64 %133
  %135 = load i32, ptr %134, align 4, !tbaa !8
  %136 = load ptr, ptr %5, align 8, !tbaa !3
  %137 = load i32, ptr %9, align 4, !tbaa !8
  %138 = sext i32 %137 to i64
  %139 = getelementptr inbounds i32, ptr %136, i64 %138
  %140 = load i32, ptr %139, align 4, !tbaa !8
  %141 = lshr i32 %140, 16
  %142 = xor i32 %135, %141
  %143 = and i32 %142, 65535
  %144 = call i32 @Kit_WordCountOnes(i32 noundef %143)
  %145 = load i32, ptr %12, align 4, !tbaa !8
  %146 = add nsw i32 %145, %144
  store i32 %146, ptr %12, align 4, !tbaa !8
  br label %147

147:                                              ; preds = %130
  %148 = load i32, ptr %9, align 4, !tbaa !8
  %149 = add nsw i32 %148, 1
  store i32 %149, ptr %9, align 4, !tbaa !8
  br label %126, !llvm.loop !129

150:                                              ; preds = %126
  %151 = load i32, ptr %12, align 4, !tbaa !8
  store i32 %151, ptr %4, align 4
  store i32 1, ptr %13, align 4
  br label %198

152:                                              ; preds = %3
  %153 = load i32, ptr %7, align 4, !tbaa !8
  %154 = sub nsw i32 %153, 5
  %155 = shl i32 1, %154
  store i32 %155, ptr %11, align 4, !tbaa !8
  store i32 0, ptr %10, align 4, !tbaa !8
  br label %156

156:                                              ; preds = %191, %152
  %157 = load i32, ptr %10, align 4, !tbaa !8
  %158 = load i32, ptr %8, align 4, !tbaa !8
  %159 = icmp slt i32 %157, %158
  br i1 %159, label %160, label %196

160:                                              ; preds = %156
  store i32 0, ptr %9, align 4, !tbaa !8
  br label %161

161:                                              ; preds = %182, %160
  %162 = load i32, ptr %9, align 4, !tbaa !8
  %163 = load i32, ptr %11, align 4, !tbaa !8
  %164 = icmp slt i32 %162, %163
  br i1 %164, label %165, label %185

165:                                              ; preds = %161
  %166 = load ptr, ptr %5, align 8, !tbaa !3
  %167 = load i32, ptr %9, align 4, !tbaa !8
  %168 = sext i32 %167 to i64
  %169 = getelementptr inbounds i32, ptr %166, i64 %168
  %170 = load i32, ptr %169, align 4, !tbaa !8
  %171 = load ptr, ptr %5, align 8, !tbaa !3
  %172 = load i32, ptr %11, align 4, !tbaa !8
  %173 = load i32, ptr %9, align 4, !tbaa !8
  %174 = add nsw i32 %172, %173
  %175 = sext i32 %174 to i64
  %176 = getelementptr inbounds i32, ptr %171, i64 %175
  %177 = load i32, ptr %176, align 4, !tbaa !8
  %178 = xor i32 %170, %177
  %179 = call i32 @Kit_WordCountOnes(i32 noundef %178)
  %180 = load i32, ptr %12, align 4, !tbaa !8
  %181 = add nsw i32 %180, %179
  store i32 %181, ptr %12, align 4, !tbaa !8
  br label %182

182:                                              ; preds = %165
  %183 = load i32, ptr %9, align 4, !tbaa !8
  %184 = add nsw i32 %183, 1
  store i32 %184, ptr %9, align 4, !tbaa !8
  br label %161, !llvm.loop !130

185:                                              ; preds = %161
  %186 = load i32, ptr %11, align 4, !tbaa !8
  %187 = mul nsw i32 2, %186
  %188 = load ptr, ptr %5, align 8, !tbaa !3
  %189 = sext i32 %187 to i64
  %190 = getelementptr inbounds i32, ptr %188, i64 %189
  store ptr %190, ptr %5, align 8, !tbaa !3
  br label %191

191:                                              ; preds = %185
  %192 = load i32, ptr %11, align 4, !tbaa !8
  %193 = mul nsw i32 2, %192
  %194 = load i32, ptr %10, align 4, !tbaa !8
  %195 = add nsw i32 %194, %193
  store i32 %195, ptr %10, align 4, !tbaa !8
  br label %156, !llvm.loop !131

196:                                              ; preds = %156
  %197 = load i32, ptr %12, align 4, !tbaa !8
  store i32 %197, ptr %4, align 4
  store i32 1, ptr %13, align 4
  br label %198

198:                                              ; preds = %196, %150, %123, %96, %69, %42
  call void @llvm.lifetime.end.p0(i64 4, ptr %12) #8
  call void @llvm.lifetime.end.p0(i64 4, ptr %11) #8
  call void @llvm.lifetime.end.p0(i64 4, ptr %10) #8
  call void @llvm.lifetime.end.p0(i64 4, ptr %9) #8
  call void @llvm.lifetime.end.p0(i64 4, ptr %8) #8
  %199 = load i32, ptr %4, align 4
  ret i32 %199
}