; Function Attrs: nofree norecurse nosync nounwind memory(argmem: read) uwtable
define i32 @Kit_TruthBooleanDiffCount(ptr noundef readonly captures(none) %0, i32 noundef %1, i32 noundef %2) local_unnamed_addr #3 {
  %4 = icmp slt i32 %1, 6
  %5 = add nsw i32 %1, -5
  %6 = shl nuw i32 1, %5
  %7 = select i1 %4, i32 1, i32 %6
  switch i32 %2, label %113 [
    i32 0, label %.preheader75
    i32 1, label %.preheader77
    i32 2, label %.preheader79
    i32 3, label %.preheader81
    i32 4, label %.preheader83
  ]

.preheader83:                                     ; preds = %3
  %8 = icmp sgt i32 %7, 0
  br i1 %8, label %.lr.ph.preheader, label %.loopexit

.lr.ph.preheader:                                 ; preds = %.preheader83
  %wide.trip.count = zext nneg i32 %7 to i64
  br label %.lr.ph

.preheader81:                                     ; preds = %3
  %9 = icmp sgt i32 %7, 0
  br i1 %9, label %.lr.ph89.preheader, label %.loopexit

.lr.ph89.preheader:                               ; preds = %.preheader81
  %wide.trip.count126 = zext nneg i32 %7 to i64
  br label %.lr.ph89

.preheader79:                                     ; preds = %3
  %10 = icmp sgt i32 %7, 0
  br i1 %10, label %.lr.ph93.preheader, label %.loopexit

.lr.ph93.preheader:                               ; preds = %.preheader79
  %wide.trip.count131 = zext nneg i32 %7 to i64
  br label %.lr.ph93

.preheader77:                                     ; preds = %3
  %11 = icmp sgt i32 %7, 0
  br i1 %11, label %.lr.ph97.preheader, label %.loopexit

.lr.ph97.preheader:                               ; preds = %.preheader77
  %wide.trip.count136 = zext nneg i32 %7 to i64
  br label %.lr.ph97

.preheader75:                                     ; preds = %3
  %12 = icmp sgt i32 %7, 0
  br i1 %12, label %.lr.ph101.preheader, label %.loopexit

.lr.ph101.preheader:                              ; preds = %.preheader75
  %wide.trip.count141 = zext nneg i32 %7 to i64
  br label %.lr.ph101

.lr.ph101:                                        ; preds = %.lr.ph101.preheader, %.lr.ph101
  %indvars.iv138 = phi i64 [ 0, %.lr.ph101.preheader ], [ %indvars.iv.next139, %.lr.ph101 ]
  %.0100 = phi i32 [ 0, %.lr.ph101.preheader ], [ %32, %.lr.ph101 ]
  %13 = getelementptr inbounds nuw i32, ptr %0, i64 %indvars.iv138
  %14 = load i32, ptr %13, align 4, !tbaa !3
  %15 = lshr i32 %14, 1
  %16 = xor i32 %15, %14
  %17 = and i32 %16, 286331153
  %18 = lshr i32 %16, 2
  %19 = and i32 %18, 286331153
  %20 = add nuw nsw i32 %19, %17
  %21 = and i32 %20, 50529027
  %22 = lshr i32 %20, 4
  %23 = and i32 %22, 50529027
  %24 = add nuw nsw i32 %23, %21
  %25 = and i32 %24, 458759
  %26 = lshr i32 %24, 8
  %27 = and i32 %26, 458759
  %28 = add nuw nsw i32 %27, %25
  %29 = and i32 %28, 15
  %30 = lshr i32 %28, 16
  %31 = add nuw nsw i32 %30, %.0100
  %32 = add nuw nsw i32 %31, %29
  %indvars.iv.next139 = add nuw nsw i64 %indvars.iv138, 1
  %exitcond142.not = icmp eq i64 %indvars.iv.next139, %wide.trip.count141
  br i1 %exitcond142.not, label %.loopexit, label %.lr.ph101, !llvm.loop !119

.lr.ph97:                                         ; preds = %.lr.ph97.preheader, %.lr.ph97
  %indvars.iv133 = phi i64 [ 0, %.lr.ph97.preheader ], [ %indvars.iv.next134, %.lr.ph97 ]
  %.196 = phi i32 [ 0, %.lr.ph97.preheader ], [ %52, %.lr.ph97 ]
  %33 = getelementptr inbounds nuw i32, ptr %0, i64 %indvars.iv133
  %34 = load i32, ptr %33, align 4, !tbaa !3
  %35 = lshr i32 %34, 2
  %36 = xor i32 %35, %34
  %37 = and i32 %36, 286331153
  %38 = lshr i32 %36, 1
  %39 = and i32 %38, 286331153
  %40 = add nuw nsw i32 %39, %37
  %41 = and i32 %40, 50529027
  %42 = lshr i32 %40, 4
  %43 = and i32 %42, 50529027
  %44 = add nuw nsw i32 %43, %41
  %45 = and i32 %44, 458759
  %46 = lshr i32 %44, 8
  %47 = and i32 %46, 458759
  %48 = add nuw nsw i32 %47, %45
  %49 = and i32 %48, 15
  %50 = lshr i32 %48, 16
  %51 = add nuw nsw i32 %50, %.196
  %52 = add nuw nsw i32 %51, %49
  %indvars.iv.next134 = add nuw nsw i64 %indvars.iv133, 1
  %exitcond137.not = icmp eq i64 %indvars.iv.next134, %wide.trip.count136
  br i1 %exitcond137.not, label %.loopexit, label %.lr.ph97, !llvm.loop !120

.lr.ph93:                                         ; preds = %.lr.ph93.preheader, %.lr.ph93
  %indvars.iv128 = phi i64 [ 0, %.lr.ph93.preheader ], [ %indvars.iv.next129, %.lr.ph93 ]
  %.292 = phi i32 [ 0, %.lr.ph93.preheader ], [ %72, %.lr.ph93 ]
  %53 = getelementptr inbounds nuw i32, ptr %0, i64 %indvars.iv128
  %54 = load i32, ptr %53, align 4, !tbaa !3
  %55 = lshr i32 %54, 4
  %56 = xor i32 %55, %54
  %57 = and i32 %56, 84215045
  %58 = lshr i32 %56, 1
  %59 = and i32 %58, 84215045
  %60 = add nuw nsw i32 %59, %57
  %61 = and i32 %60, 50529027
  %62 = lshr i32 %60, 2
  %63 = and i32 %62, 50529027
  %64 = add nuw nsw i32 %63, %61
  %65 = and i32 %64, 458759
  %66 = lshr i32 %64, 8
  %67 = and i32 %66, 458759
  %68 = add nuw nsw i32 %67, %65
  %69 = and i32 %68, 15
  %70 = lshr i32 %68, 16
  %71 = add nuw nsw i32 %70, %.292
  %72 = add nuw nsw i32 %71, %69
  %indvars.iv.next129 = add nuw nsw i64 %indvars.iv128, 1
  %exitcond132.not = icmp eq i64 %indvars.iv.next129, %wide.trip.count131
  br i1 %exitcond132.not, label %.loopexit, label %.lr.ph93, !llvm.loop !121

.lr.ph89:                                         ; preds = %.lr.ph89.preheader, %.lr.ph89
  %indvars.iv123 = phi i64 [ 0, %.lr.ph89.preheader ], [ %indvars.iv.next124, %.lr.ph89 ]
  %.388 = phi i32 [ 0, %.lr.ph89.preheader ], [ %92, %.lr.ph89 ]
  %73 = getelementptr inbounds nuw i32, ptr %0, i64 %indvars.iv123
  %74 = load i32, ptr %73, align 4, !tbaa !3
  %75 = lshr i32 %74, 8
  %76 = xor i32 %75, %74
  %77 = and i32 %76, 5570645
  %78 = lshr i32 %76, 1
  %79 = and i32 %78, 5570645
  %80 = add nuw nsw i32 %79, %77
  %81 = and i32 %80, 3342387
  %82 = lshr i32 %80, 2
  %83 = and i32 %82, 3342387
  %84 = add nuw nsw i32 %83, %81
  %85 = and i32 %84, 458759
  %86 = lshr i32 %84, 4
  %87 = and i32 %86, 458759
  %88 = add nuw nsw i32 %87, %85
  %89 = and i32 %88, 15
  %90 = lshr i32 %88, 16
  %91 = add nuw nsw i32 %90, %.388
  %92 = add nuw nsw i32 %91, %89
  %indvars.iv.next124 = add nuw nsw i64 %indvars.iv123, 1
  %exitcond127.not = icmp eq i64 %indvars.iv.next124, %wide.trip.count126
  br i1 %exitcond127.not, label %.loopexit, label %.lr.ph89, !llvm.loop !122

.lr.ph:                                           ; preds = %.lr.ph.preheader, %.lr.ph
  %indvars.iv = phi i64 [ 0, %.lr.ph.preheader ], [ %indvars.iv.next, %.lr.ph ]
  %.486 = phi i32 [ 0, %.lr.ph.preheader ], [ %112, %.lr.ph ]
  %93 = getelementptr inbounds nuw i32, ptr %0, i64 %indvars.iv
  %94 = load i32, ptr %93, align 4, !tbaa !3
  %95 = lshr i32 %94, 16
  %96 = xor i32 %94, %95
  %97 = and i32 %96, 21845
  %98 = lshr i32 %96, 1
  %99 = and i32 %98, 21845
  %100 = add nuw nsw i32 %99, %97
  %101 = and i32 %100, 13107
  %102 = lshr i32 %100, 2
  %103 = and i32 %102, 13107
  %104 = add nuw nsw i32 %103, %101
  %105 = and i32 %104, 1799
  %106 = lshr i32 %104, 4
  %107 = and i32 %106, 1799
  %108 = add nuw nsw i32 %107, %105
  %109 = and i32 %108, 15
  %110 = lshr i32 %108, 8
  %111 = add nuw nsw i32 %109, %.486
  %112 = add nuw nsw i32 %111, %110
  %indvars.iv.next = add nuw nsw i64 %indvars.iv, 1
  %exitcond.not = icmp eq i64 %indvars.iv.next, %wide.trip.count
  br i1 %exitcond.not, label %.loopexit, label %.lr.ph, !llvm.loop !123

113:                                              ; preds = %3
  %114 = add nsw i32 %2, -5
  %115 = shl nuw i32 1, %114
  %116 = icmp sgt i32 %7, 0
  br i1 %116, label %.preheader.lr.ph, label %.loopexit

.preheader.lr.ph:                                 ; preds = %113
  %.not = icmp eq i32 %114, 31
  %117 = shl i32 2, %114
  %118 = sext i32 %117 to i64
  br i1 %.not, label %.loopexit, label %.preheader.us.preheader

.preheader.us.preheader:                          ; preds = %.preheader.lr.ph
  %119 = sext i32 %115 to i64
  %smax = tail call i32 @llvm.smax.i32(i32 %115, i32 1)
  %wide.trip.count146 = zext nneg i32 %smax to i64
  br label %.preheader.us

.preheader.us:                                    ; preds = %.preheader.us.preheader, %._crit_edge.us
  %.5109.us = phi i32 [ %144, %._crit_edge.us ], [ 0, %.preheader.us.preheader ]
  %.065108.us = phi i32 [ %146, %._crit_edge.us ], [ 0, %.preheader.us.preheader ]
  %.072107.us = phi ptr [ %145, %._crit_edge.us ], [ %0, %.preheader.us.preheader ]
  %invariant.gep = getelementptr i32, ptr %.072107.us, i64 %119
  br label %120

120:                                              ; preds = %.preheader.us, %120
  %indvars.iv143 = phi i64 [ 0, %.preheader.us ], [ %indvars.iv.next144, %120 ]
  %.6104.us = phi i32 [ %.5109.us, %.preheader.us ], [ %144, %120 ]
  %121 = getelementptr inbounds nuw i32, ptr %.072107.us, i64 %indvars.iv143
  %122 = load i32, ptr %121, align 4, !tbaa !3
  %gep = getelementptr i32, ptr %invariant.gep, i64 %indvars.iv143
  %123 = load i32, ptr %gep, align 4, !tbaa !3
  %124 = xor i32 %123, %122
  %125 = and i32 %124, 1431655765
  %126 = lshr i32 %124, 1
  %127 = and i32 %126, 1431655765
  %128 = add nuw i32 %127, %125
  %129 = and i32 %128, 858993459
  %130 = lshr i32 %128, 2
  %131 = and i32 %130, 858993459
  %132 = add nuw nsw i32 %131, %129
  %133 = and i32 %132, 117901063
  %134 = lshr i32 %132, 4
  %135 = and i32 %134, 117901063
  %136 = add nuw nsw i32 %135, %133
  %137 = and i32 %136, 983055
  %138 = lshr i32 %136, 8
  %139 = and i32 %138, 983055
  %140 = add nuw nsw i32 %139, %137
  %141 = and i32 %140, 31
  %142 = lshr i32 %140, 16
  %143 = add i32 %142, %.6104.us
  %144 = add i32 %143, %141
  %indvars.iv.next144 = add nuw nsw i64 %indvars.iv143, 1
  %exitcond147.not = icmp eq i64 %indvars.iv.next144, %wide.trip.count146
  br i1 %exitcond147.not, label %._crit_edge.us, label %120, !llvm.loop !124

._crit_edge.us:                                   ; preds = %120
  %145 = getelementptr inbounds i32, ptr %.072107.us, i64 %118
  %146 = add nsw i32 %.065108.us, %117
  %147 = icmp slt i32 %146, %7
  br i1 %147, label %.preheader.us, label %.loopexit, !llvm.loop !125

.loopexit:                                        ; preds = %.lr.ph, %.lr.ph89, %.lr.ph93, %.lr.ph97, %.lr.ph101, %._crit_edge.us, %.preheader.lr.ph, %.preheader83, %.preheader81, %.preheader79, %.preheader77, %.preheader75, %113
  %.064 = phi i32 [ 0, %113 ], [ 0, %.preheader75 ], [ 0, %.preheader77 ], [ 0, %.preheader79 ], [ 0, %.preheader81 ], [ 0, %.preheader83 ], [ poison, %.preheader.lr.ph ], [ %144, %._crit_edge.us ], [ %32, %.lr.ph101 ], [ %52, %.lr.ph97 ], [ %72, %.lr.ph93 ], [ %92, %.lr.ph89 ], [ %112, %.lr.ph ]
  ret i32 %.064
}